target datalayout = "e-m:e-p270:32:32-p271:32:32-p272:64:64-i64:64-i128:128-f80:128-n8:16:32:64-S128"
target triple = "x86_64-pc-linux-gnu"

%"class.std::basic_ios" = type { %"class.std::ios_base", ptr, i8, i8, ptr, ptr, ptr, ptr }
%"class.std::ios_base" = type { ptr, i64, i64, i32, i32, i32, ptr, %"struct.std::ios_base::_Words", [8 x %"struct.std::ios_base::_Words"], i32, ptr, %"class.std::locale" }
%"struct.std::ios_base::_Words" = type { ptr, i64 }
%"class.std::locale" = type { ptr }
%class.Moves = type { i32, i32, i32, i32, i32, i32, i32, i32, i32, [13 x %"struct.Moves::trackType"], ptr, [13 x [4 x %struct.movePlyType]], ptr, [13 x [4 x i32]], [13 x %"class.std::__cxx11::basic_string"], [13 x [4 x %"struct.Moves::moveStatType"]], [13 x [4 x %"struct.Moves::moveStatType"]], [13 x [4 x %"struct.Moves::moveStatsType"]], [13 x [4 x %"struct.Moves::moveStatsType"]], %"struct.Moves::moveStatsType", %"struct.Moves::moveStatsType", [16 x { i64, i64 }] }
%"struct.Moves::trackType" = type { i32, i32, [4 x i32], [4 x i32], %struct.trickDataType, [4 x %struct.extCard], [4 x i32], [4 x [4 x i32]], [4 x i32] }
%struct.trickDataType = type { [4 x i32], i32, i32, i32, i32, i32 }
%struct.extCard = type { i32, i32, i32 }
%struct.movePlyType = type { [14 x %struct.moveType], i32, i32 }
%struct.moveType = type { i32, i32, i32, i32 }
%"class.std::__cxx11::basic_string" = type { %"struct.std::__cxx11::basic_string<char>::_Alloc_hider", i64, %union.anon }
%"struct.std::__cxx11::basic_string<char>::_Alloc_hider" = type { ptr }
%union.anon = type { i64, [8 x i8] }
%"struct.Moves::moveStatType" = type { i32, i32, i32, i32 }
%"struct.Moves::moveStatsType" = type { i32, [13 x %"struct.Moves::moveStatType"] }
%"class.std::__cxx11::basic_stringstream" = type { %"class.std::basic_iostream.base", %"class.std::__cxx11::basic_stringbuf", %"class.std::basic_ios" }
%"class.std::basic_iostream.base" = type { %"class.std::basic_istream.base", %"class.std::basic_ostream.base" }
%"class.std::basic_istream.base" = type { ptr, i64 }
%"class.std::basic_ostream.base" = type { ptr }
%"class.std::__cxx11::basic_stringbuf" = type { %"class.std::basic_streambuf", i32, %"class.std::__cxx11::basic_string" }
%"class.std::basic_streambuf" = type { ptr, ptr, ptr, ptr, ptr, ptr, ptr, %"class.std::locale" }
%"struct.std::_Setw" = type { i32 }

@.str.17 = private unnamed_addr constant [2 x i8] c"\0A\00", align 1
@cardSuit = external global [5 x i8], align 1
@cardRank = external global [16 x i8], align 16
@.str.23 = private unnamed_addr constant [11 x i8] c"Last trick\00", align 1
@cardHand = external global [4 x i8], align 1
@.str.24 = private unnamed_addr constant [3 x i8] c": \00", align 1
@.str.25 = private unnamed_addr constant [4 x i8] c" - \00", align 1

; Function Attrs: mustprogress nounwind uwtable
define linkonce_odr i32 @_ZSt4setwi(i32 noundef %0) #5 comdat {
  %2 = alloca %"struct.std::_Setw", align 4
  %3 = alloca i32, align 4
  store i32 %0, ptr %3, align 4
  %4 = getelementptr inbounds nuw %"struct.std::_Setw", ptr %2, i32 0, i32 0
  %5 = load i32, ptr %3, align 4
  store i32 %5, ptr %4, align 4
  %6 = getelementptr inbounds nuw %"struct.std::_Setw", ptr %2, i32 0, i32 0
  %7 = load i32, ptr %6, align 4
  ret i32 %7
}

; Function Attrs: mustprogress uwtable
define void @_ZNK5Moves11TrickToTextB5cxx11Ei(ptr dead_on_unwind noalias writable sret(%"class.std::__cxx11::basic_string") align 8 %0, ptr noundef nonnull align 8 dereferenceable(39992) %1, i32 noundef %2) #4 align 2 personality ptr @__gxx_personality_v0 {
  %4 = alloca ptr, align 8
  %5 = alloca ptr, align 8
  %6 = alloca i32, align 4
  %7 = alloca ptr, align 8
  %8 = alloca ptr, align 8
  %9 = alloca ptr, align 8
  %10 = alloca ptr, align 8
  %11 = alloca %"class.std::__cxx11::basic_stringstream", align 8
  %12 = alloca %"struct.std::_Setw", align 4
  %13 = alloca ptr, align 8
  %14 = alloca i32, align 4
  store ptr %0, ptr %4, align 8
  store ptr %1, ptr %5, align 8
  store i32 %2, ptr %6, align 4
  %15 = load ptr, ptr %5, align 8
  %16 = getelementptr inbounds nuw %class.Moves, ptr %15, i32 0, i32 11
  %17 = load i32, ptr %6, align 4
  %18 = sext i32 %17 to i64
  %19 = getelementptr inbounds [13 x [4 x %struct.movePlyType]], ptr %16, i64 0, i64 %18
  %20 = getelementptr inbounds [4 x %struct.movePlyType], ptr %19, i64 0, i64 0
  store ptr %20, ptr %7, align 8
  %21 = getelementptr inbounds nuw %class.Moves, ptr %15, i32 0, i32 11
  %22 = load i32, ptr %6, align 4
  %23 = sext i32 %22 to i64
  %24 = getelementptr inbounds [13 x [4 x %struct.movePlyType]], ptr %21, i64 0, i64 %23
  %25 = getelementptr inbounds [4 x %struct.movePlyType], ptr %24, i64 0, i64 1
  store ptr %25, ptr %8, align 8
  %26 = getelementptr inbounds nuw %class.Moves, ptr %15, i32 0, i32 11
  %27 = load i32, ptr %6, align 4
  %28 = sext i32 %27 to i64
  %29 = getelementptr inbounds [13 x [4 x %struct.movePlyType]], ptr %26, i64 0, i64 %28
  %30 = getelementptr inbounds [4 x %struct.movePlyType], ptr %29, i64 0, i64 2
  store ptr %30, ptr %9, align 8
  %31 = getelementptr inbounds nuw %class.Moves, ptr %15, i32 0, i32 11
  %32 = load i32, ptr %6, align 4
  %33 = sext i32 %32 to i64
  %34 = getelementptr inbounds [13 x [4 x %struct.movePlyType]], ptr %31, i64 0, i64 %33
  %35 = getelementptr inbounds [4 x %struct.movePlyType], ptr %34, i64 0, i64 3
  store ptr %35, ptr %10, align 8
  call void @_ZNSt7__cxx1118basic_stringstreamIcSt11char_traitsIcESaIcEEC1Ev(ptr noundef nonnull align 8 dereferenceable(128) %11)
  %36 = getelementptr inbounds i8, ptr %11, i64 16
  %37 = invoke i32 @_ZSt4setwi(i32 noundef 16)
          to label %38 unwind label %182

38:                                               ; preds = %3
  %39 = getelementptr inbounds nuw %"struct.std::_Setw", ptr %12, i32 0, i32 0
  store i32 %37, ptr %39, align 4
  %40 = getelementptr inbounds nuw %"struct.std::_Setw", ptr %12, i32 0, i32 0
  %41 = load i32, ptr %40, align 4
  %42 = invoke noundef nonnull align 8 dereferenceable(8) ptr @_ZStlsIcSt11char_traitsIcEERSt13basic_ostreamIT_T0_ES6_St5_Setw(ptr noundef nonnull align 8 dereferenceable(8) %36, i32 %41)
          to label %43 unwind label %182

43:                                               ; preds = %38
  %44 = invoke noundef nonnull align 8 dereferenceable(8) ptr @_ZNSolsEPFRSt8ios_baseS0_E(ptr noundef nonnull align 8 dereferenceable(8) %42, ptr noundef @_ZSt4leftRSt8ios_base)
          to label %45 unwind label %182

45:                                               ; preds = %43
  %46 = invoke noundef nonnull align 8 dereferenceable(8) ptr @_ZStlsISt11char_traitsIcEERSt13basic_ostreamIcT_ES5_PKc(ptr noundef nonnull align 8 dereferenceable(8) %44, ptr noundef @.str.23)
          to label %47 unwind label %182

47:                                               ; preds = %45
  %48 = getelementptr inbounds nuw %class.Moves, ptr %15, i32 0, i32 9
  %49 = load i32, ptr %6, align 4
  %50 = sext i32 %49 to i64
  %51 = getelementptr inbounds [13 x %"struct.Moves::trackType"], ptr %48, i64 0, i64 %50
  %52 = getelementptr inbounds nuw %"struct.Moves::trackType", ptr %51, i32 0, i32 0
  %53 = load i32, ptr %52, align 4
  %54 = sext i32 %53 to i64
  %55 = getelementptr inbounds [4 x i8], ptr @cardHand, i64 0, i64 %54
  %56 = load i8, ptr %55, align 1
  %57 = invoke noundef nonnull align 8 dereferenceable(8) ptr @_ZStlsISt11char_traitsIcEERSt13basic_ostreamIcT_ES5_h(ptr noundef nonnull align 8 dereferenceable(8) %46, i8 noundef zeroext %56)
          to label %58 unwind label %182

58:                                               ; preds = %47
  %59 = invoke noundef nonnull align 8 dereferenceable(8) ptr @_ZStlsISt11char_traitsIcEERSt13basic_ostreamIcT_ES5_PKc(ptr noundef nonnull align 8 dereferenceable(8) %57, ptr noundef @.str.24)
          to label %60 unwind label %182

60:                                               ; preds = %58
  %61 = load ptr, ptr %7, align 8
  %62 = getelementptr inbounds nuw %struct.movePlyType, ptr %61, i32 0, i32 0
  %63 = load ptr, ptr %7, align 8
  %64 = getelementptr inbounds nuw %struct.movePlyType, ptr %63, i32 0, i32 1
  %65 = load i32, ptr %64, align 4
  %66 = sext i32 %65 to i64
  %67 = getelementptr inbounds [14 x %struct.moveType], ptr %62, i64 0, i64 %66
  %68 = getelementptr inbounds nuw %struct.moveType, ptr %67, i32 0, i32 0
  %69 = load i32, ptr %68, align 4
  %70 = sext i32 %69 to i64
  %71 = getelementptr inbounds [5 x i8], ptr @cardSuit, i64 0, i64 %70
  %72 = load i8, ptr %71, align 1
  %73 = invoke noundef nonnull align 8 dereferenceable(8) ptr @_ZStlsISt11char_traitsIcEERSt13basic_ostreamIcT_ES5_h(ptr noundef nonnull align 8 dereferenceable(8) %59, i8 noundef zeroext %72)
          to label %74 unwind label %182

74:                                               ; preds = %60
  %75 = load ptr, ptr %7, align 8
  %76 = getelementptr inbounds nuw %struct.movePlyType, ptr %75, i32 0, i32 0
  %77 = load ptr, ptr %7, align 8
  %78 = getelementptr inbounds nuw %struct.movePlyType, ptr %77, i32 0, i32 1
  %79 = load i32, ptr %78, align 4
  %80 = sext i32 %79 to i64
  %81 = getelementptr inbounds [14 x %struct.moveType], ptr %76, i64 0, i64 %80
  %82 = getelementptr inbounds nuw %struct.moveType, ptr %81, i32 0, i32 1
  %83 = load i32, ptr %82, align 4
  %84 = sext i32 %83 to i64
  %85 = getelementptr inbounds [16 x i8], ptr @cardRank, i64 0, i64 %84
  %86 = load i8, ptr %85, align 1
  %87 = invoke noundef nonnull align 8 dereferenceable(8) ptr @_ZStlsISt11char_traitsIcEERSt13basic_ostreamIcT_ES5_h(ptr noundef nonnull align 8 dereferenceable(8) %73, i8 noundef zeroext %86)
          to label %88 unwind label %182

88:                                               ; preds = %74
  %89 = invoke noundef nonnull align 8 dereferenceable(8) ptr @_ZStlsISt11char_traitsIcEERSt13basic_ostreamIcT_ES5_PKc(ptr noundef nonnull align 8 dereferenceable(8) %87, ptr noundef @.str.25)
          to label %90 unwind label %182

90:                                               ; preds = %88
  %91 = load ptr, ptr %8, align 8
  %92 = getelementptr inbounds nuw %struct.movePlyType, ptr %91, i32 0, i32 0
  %93 = load ptr, ptr %8, align 8
  %94 = getelementptr inbounds nuw %struct.movePlyType, ptr %93, i32 0, i32 1
  %95 = load i32, ptr %94, align 4
  %96 = sext i32 %95 to i64
  %97 = getelementptr inbounds [14 x %struct.moveType], ptr %92, i64 0, i64 %96
  %98 = getelementptr inbounds nuw %struct.moveType, ptr %97, i32 0, i32 0
  %99 = load i32, ptr %98, align 4
  %100 = sext i32 %99 to i64
  %101 = getelementptr inbounds [5 x i8], ptr @cardSuit, i64 0, i64 %100
  %102 = load i8, ptr %101, align 1
  %103 = invoke noundef nonnull align 8 dereferenceable(8) ptr @_ZStlsISt11char_traitsIcEERSt13basic_ostreamIcT_ES5_h(ptr noundef nonnull align 8 dereferenceable(8) %89, i8 noundef zeroext %102)
          to label %104 unwind label %182

104:                                              ; preds = %90
  %105 = load ptr, ptr %8, align 8
  %106 = getelementptr inbounds nuw %struct.movePlyType, ptr %105, i32 0, i32 0
  %107 = load ptr, ptr %8, align 8
  %108 = getelementptr inbounds nuw %struct.movePlyType, ptr %107, i32 0, i32 1
  %109 = load i32, ptr %108, align 4
  %110 = sext i32 %109 to i64
  %111 = getelementptr inbounds [14 x %struct.moveType], ptr %106, i64 0, i64 %110
  %112 = getelementptr inbounds nuw %struct.moveType, ptr %111, i32 0, i32 1
  %113 = load i32, ptr %112, align 4
  %114 = sext i32 %113 to i64
  %115 = getelementptr inbounds [16 x i8], ptr @cardRank, i64 0, i64 %114
  %116 = load i8, ptr %115, align 1
  %117 = invoke noundef nonnull align 8 dereferenceable(8) ptr @_ZStlsISt11char_traitsIcEERSt13basic_ostreamIcT_ES5_h(ptr noundef nonnull align 8 dereferenceable(8) %103, i8 noundef zeroext %116)
          to label %118 unwind label %182

118:                                              ; preds = %104
  %119 = invoke noundef nonnull align 8 dereferenceable(8) ptr @_ZStlsISt11char_traitsIcEERSt13basic_ostreamIcT_ES5_PKc(ptr noundef nonnull align 8 dereferenceable(8) %117, ptr noundef @.str.25)
          to label %120 unwind label %182

120:                                              ; preds = %118
  %121 = load ptr, ptr %9, align 8
  %122 = getelementptr inbounds nuw %struct.movePlyType, ptr %121, i32 0, i32 0
  %123 = load ptr, ptr %9, align 8
  %124 = getelementptr inbounds nuw %struct.movePlyType, ptr %123, i32 0, i32 1
  %125 = load i32, ptr %124, align 4
  %126 = sext i32 %125 to i64
  %127 = getelementptr inbounds [14 x %struct.moveType], ptr %122, i64 0, i64 %126
  %128 = getelementptr inbounds nuw %struct.moveType, ptr %127, i32 0, i32 0
  %129 = load i32, ptr %128, align 4
  %130 = sext i32 %129 to i64
  %131 = getelementptr inbounds [5 x i8], ptr @cardSuit, i64 0, i64 %130
  %132 = load i8, ptr %131, align 1
  %133 = invoke noundef nonnull align 8 dereferenceable(8) ptr @_ZStlsISt11char_traitsIcEERSt13basic_ostreamIcT_ES5_h(ptr noundef nonnull align 8 dereferenceable(8) %119, i8 noundef zeroext %132)
          to label %134 unwind label %182

134:                                              ; preds = %120
  %135 = load ptr, ptr %9, align 8
  %136 = getelementptr inbounds nuw %struct.movePlyType, ptr %135, i32 0, i32 0
  %137 = load ptr, ptr %9, align 8
  %138 = getelementptr inbounds nuw %struct.movePlyType, ptr %137, i32 0, i32 1
  %139 = load i32, ptr %138, align 4
  %140 = sext i32 %139 to i64
  %141 = getelementptr inbounds [14 x %struct.moveType], ptr %136, i64 0, i64 %140
  %142 = getelementptr inbounds nuw %struct.moveType, ptr %141, i32 0, i32 1
  %143 = load i32, ptr %142, align 4
  %144 = sext i32 %143 to i64
  %145 = getelementptr inbounds [16 x i8], ptr @cardRank, i64 0, i64 %144
  %146 = load i8, ptr %145, align 1
  %147 = invoke noundef nonnull align 8 dereferenceable(8) ptr @_ZStlsISt11char_traitsIcEERSt13basic_ostreamIcT_ES5_h(ptr noundef nonnull align 8 dereferenceable(8) %133, i8 noundef zeroext %146)
          to label %148 unwind label %182

148:                                              ; preds = %134
  %149 = invoke noundef nonnull align 8 dereferenceable(8) ptr @_ZStlsISt11char_traitsIcEERSt13basic_ostreamIcT_ES5_PKc(ptr noundef nonnull align 8 dereferenceable(8) %147, ptr noundef @.str.25)
          to label %150 unwind label %182

150:                                              ; preds = %148
  %151 = load ptr, ptr %10, align 8
  %152 = getelementptr inbounds nuw %struct.movePlyType, ptr %151, i32 0, i32 0
  %153 = load ptr, ptr %10, align 8
  %154 = getelementptr inbounds nuw %struct.movePlyType, ptr %153, i32 0, i32 1
  %155 = load i32, ptr %154, align 4
  %156 = sext i32 %155 to i64
  %157 = getelementptr inbounds [14 x %struct.moveType], ptr %152, i64 0, i64 %156
  %158 = getelementptr inbounds nuw %struct.moveType, ptr %157, i32 0, i32 0
  %159 = load i32, ptr %158, align 4
  %160 = sext i32 %159 to i64
  %161 = getelementptr inbounds [5 x i8], ptr @cardSuit, i64 0, i64 %160
  %162 = load i8, ptr %161, align 1
  %163 = invoke noundef nonnull align 8 dereferenceable(8) ptr @_ZStlsISt11char_traitsIcEERSt13basic_ostreamIcT_ES5_h(ptr noundef nonnull align 8 dereferenceable(8) %149, i8 noundef zeroext %162)
          to label %164 unwind label %182

164:                                              ; preds = %150
  %165 = load ptr, ptr %10, align 8
  %166 = getelementptr inbounds nuw %struct.movePlyType, ptr %165, i32 0, i32 0
  %167 = load ptr, ptr %10, align 8
  %168 = getelementptr inbounds nuw %struct.movePlyType, ptr %167, i32 0, i32 1
  %169 = load i32, ptr %168, align 4
  %170 = sext i32 %169 to i64
  %171 = getelementptr inbounds [14 x %struct.moveType], ptr %166, i64 0, i64 %170
  %172 = getelementptr inbounds nuw %struct.moveType, ptr %171, i32 0, i32 1
  %173 = load i32, ptr %172, align 4
  %174 = sext i32 %173 to i64
  %175 = getelementptr inbounds [16 x i8], ptr @cardRank, i64 0, i64 %174
  %176 = load i8, ptr %175, align 1
  %177 = invoke noundef nonnull align 8 dereferenceable(8) ptr @_ZStlsISt11char_traitsIcEERSt13basic_ostreamIcT_ES5_h(ptr noundef nonnull align 8 dereferenceable(8) %163, i8 noundef zeroext %176)
          to label %178 unwind label %182

178:                                              ; preds = %164
  %179 = invoke noundef nonnull align 8 dereferenceable(8) ptr @_ZStlsISt11char_traitsIcEERSt13basic_ostreamIcT_ES5_PKc(ptr noundef nonnull align 8 dereferenceable(8) %177, ptr noundef @.str.17)
          to label %180 unwind label %182

180:                                              ; preds = %178
  invoke void @_ZNKSt7__cxx1118basic_stringstreamIcSt11char_traitsIcESaIcEE3strEv(ptr dead_on_unwind writable sret(%"class.std::__cxx11::basic_string") align 8 %0, ptr noundef nonnull align 8 dereferenceable(128) %11)
          to label %181 unwind label %182

181:                                              ; preds = %180
  call void @_ZNSt7__cxx1118basic_stringstreamIcSt11char_traitsIcESaIcEED1Ev(ptr noundef nonnull align 8 dereferenceable(128) %11) #3
  ret void

182:                                              ; preds = %180, %178, %164, %150, %148, %134, %120, %118, %104, %90, %88, %74, %60, %58, %47, %45, %43, %38, %3
  %183 = landingpad { ptr, i32 }
          cleanup
  %184 = extractvalue { ptr, i32 } %183, 0
  store ptr %184, ptr %13, align 8
  %185 = extractvalue { ptr, i32 } %183, 1
  store i32 %185, ptr %14, align 4
  call void @_ZNSt7__cxx1118basic_stringstreamIcSt11char_traitsIcESaIcEED1Ev(ptr noundef nonnull align 8 dereferenceable(128) %11) #3
  br label %186

186:                                              ; preds = %182
  %187 = load ptr, ptr %13, align 8
  %188 = load i32, ptr %14, align 4
  %189 = insertvalue { ptr, i32 } poison, ptr %187, 0
  %190 = insertvalue { ptr, i32 } %189, i32 %188, 1
  resume { ptr, i32 } %190
}