; Function Attrs: mustprogress uwtable
define void @_ZNK5Moves11TrickToTextB5cxx11Ei(ptr dead_on_unwind noalias writable sret(%"class.std::__cxx11::basic_string") align 8 %0, ptr nocapture noundef nonnull readonly align 8 dereferenceable(39992) %1, i32 noundef %2) local_unnamed_addr #3 align 2 personality ptr @__gxx_personality_v0 {
  %4 = alloca %"class.std::__cxx11::basic_stringstream", align 8
  %5 = getelementptr inbounds nuw i8, ptr %1, i64 2904
  %6 = sext i32 %2 to i64
  %7 = getelementptr inbounds [13 x [4 x %struct.movePlyType]], ptr %5, i64 0, i64 %6
  %8 = getelementptr inbounds i8, ptr %7, i64 232
  %9 = getelementptr inbounds i8, ptr %7, i64 464
  %10 = getelementptr inbounds i8, ptr %7, i64 696
  call void @_ZNSt7__cxx1118basic_stringstreamIcSt11char_traitsIcESaIcEEC1Ev(ptr noundef nonnull align 8 dereferenceable(128) %4)
  %11 = getelementptr inbounds i8, ptr %4, i64 16
  %12 = invoke noundef nonnull align 8 dereferenceable(8) ptr @_ZStlsIcSt11char_traitsIcEERSt13basic_ostreamIT_T0_ES6_St5_Setw(ptr noundef nonnull align 8 dereferenceable(8) %11, i32 16)
          to label %13 unwind label %113

13:                                               ; preds = %3
  %14 = invoke noundef nonnull align 8 dereferenceable(8) ptr @_ZNSolsEPFRSt8ios_baseS0_E(ptr noundef nonnull align 8 dereferenceable(8) %12, ptr noundef nonnull @_ZSt4leftRSt8ios_base)
          to label %15 unwind label %113

15:                                               ; preds = %13
  %16 = invoke noundef nonnull align 8 dereferenceable(8) ptr @_ZStlsISt11char_traitsIcEERSt13basic_ostreamIcT_ES5_PKc(ptr noundef nonnull align 8 dereferenceable(8) %14, ptr noundef nonnull @.str.23)
          to label %17 unwind label %113

17:                                               ; preds = %15
  %18 = getelementptr inbounds nuw i8, ptr %1, i64 36
  %19 = getelementptr inbounds [13 x %"struct.Moves::trackType"], ptr %18, i64 0, i64 %6
  %20 = load i32, ptr %19, align 4
  %21 = sext i32 %20 to i64
  %22 = getelementptr inbounds [4 x i8], ptr @cardHand, i64 0, i64 %21
  %23 = load i8, ptr %22, align 1
  %24 = invoke noundef nonnull align 8 dereferenceable(8) ptr @_ZStlsISt11char_traitsIcEERSt13basic_ostreamIcT_ES5_h(ptr noundef nonnull align 8 dereferenceable(8) %16, i8 noundef zeroext %23)
          to label %25 unwind label %113

25:                                               ; preds = %17
  %26 = invoke noundef nonnull align 8 dereferenceable(8) ptr @_ZStlsISt11char_traitsIcEERSt13basic_ostreamIcT_ES5_PKc(ptr noundef nonnull align 8 dereferenceable(8) %24, ptr noundef nonnull @.str.24)
          to label %27 unwind label %113

27:                                               ; preds = %25
  %28 = getelementptr inbounds nuw i8, ptr %7, i64 224
  %29 = load i32, ptr %28, align 8
  %30 = sext i32 %29 to i64
  %31 = getelementptr inbounds [14 x %struct.moveType], ptr %7, i64 0, i64 %30
  %32 = load i32, ptr %31, align 8
  %33 = sext i32 %32 to i64
  %34 = getelementptr inbounds [5 x i8], ptr @cardSuit, i64 0, i64 %33
  %35 = load i8, ptr %34, align 1
  %36 = invoke noundef nonnull align 8 dereferenceable(8) ptr @_ZStlsISt11char_traitsIcEERSt13basic_ostreamIcT_ES5_h(ptr noundef nonnull align 8 dereferenceable(8) %26, i8 noundef zeroext %35)
          to label %37 unwind label %113

37:                                               ; preds = %27
  %38 = load i32, ptr %28, align 8
  %39 = sext i32 %38 to i64
  %40 = getelementptr inbounds [14 x %struct.moveType], ptr %7, i64 0, i64 %39, i32 1
  %41 = load i32, ptr %40, align 4
  %42 = sext i32 %41 to i64
  %43 = getelementptr inbounds [16 x i8], ptr @cardRank, i64 0, i64 %42
  %44 = load i8, ptr %43, align 1
  %45 = invoke noundef nonnull align 8 dereferenceable(8) ptr @_ZStlsISt11char_traitsIcEERSt13basic_ostreamIcT_ES5_h(ptr noundef nonnull align 8 dereferenceable(8) %36, i8 noundef zeroext %44)
          to label %46 unwind label %113

46:                                               ; preds = %37
  %47 = invoke noundef nonnull align 8 dereferenceable(8) ptr @_ZStlsISt11char_traitsIcEERSt13basic_ostreamIcT_ES5_PKc(ptr noundef nonnull align 8 dereferenceable(8) %45, ptr noundef nonnull @.str.25)
          to label %48 unwind label %113

48:                                               ; preds = %46
  %49 = getelementptr inbounds i8, ptr %7, i64 456
  %50 = load i32, ptr %49, align 8
  %51 = sext i32 %50 to i64
  %52 = getelementptr inbounds [14 x %struct.moveType], ptr %8, i64 0, i64 %51
  %53 = load i32, ptr %52, align 8
  %54 = sext i32 %53 to i64
  %55 = getelementptr inbounds [5 x i8], ptr @cardSuit, i64 0, i64 %54
  %56 = load i8, ptr %55, align 1
  %57 = invoke noundef nonnull align 8 dereferenceable(8) ptr @_ZStlsISt11char_traitsIcEERSt13basic_ostreamIcT_ES5_h(ptr noundef nonnull align 8 dereferenceable(8) %47, i8 noundef zeroext %56)
          to label %58 unwind label %113

58:                                               ; preds = %48
  %59 = load i32, ptr %49, align 8
  %60 = sext i32 %59 to i64
  %61 = getelementptr inbounds [14 x %struct.moveType], ptr %8, i64 0, i64 %60, i32 1
  %62 = load i32, ptr %61, align 4
  %63 = sext i32 %62 to i64
  %64 = getelementptr inbounds [16 x i8], ptr @cardRank, i64 0, i64 %63
  %65 = load i8, ptr %64, align 1
  %66 = invoke noundef nonnull align 8 dereferenceable(8) ptr @_ZStlsISt11char_traitsIcEERSt13basic_ostreamIcT_ES5_h(ptr noundef nonnull align 8 dereferenceable(8) %57, i8 noundef zeroext %65)
          to label %67 unwind label %113

67:                                               ; preds = %58
  %68 = invoke noundef nonnull align 8 dereferenceable(8) ptr @_ZStlsISt11char_traitsIcEERSt13basic_ostreamIcT_ES5_PKc(ptr noundef nonnull align 8 dereferenceable(8) %66, ptr noundef nonnull @.str.25)
          to label %69 unwind label %113

69:                                               ; preds = %67
  %70 = getelementptr inbounds i8, ptr %7, i64 688
  %71 = load i32, ptr %70, align 8
  %72 = sext i32 %71 to i64
  %73 = getelementptr inbounds [14 x %struct.moveType], ptr %9, i64 0, i64 %72
  %74 = load i32, ptr %73, align 8
  %75 = sext i32 %74 to i64
  %76 = getelementptr inbounds [5 x i8], ptr @cardSuit, i64 0, i64 %75
  %77 = load i8, ptr %76, align 1
  %78 = invoke noundef nonnull align 8 dereferenceable(8) ptr @_ZStlsISt11char_traitsIcEERSt13basic_ostreamIcT_ES5_h(ptr noundef nonnull align 8 dereferenceable(8) %68, i8 noundef zeroext %77)
          to label %79 unwind label %113

79:                                               ; preds = %69
  %80 = load i32, ptr %70, align 8
  %81 = sext i32 %80 to i64
  %82 = getelementptr inbounds [14 x %struct.moveType], ptr %9, i64 0, i64 %81, i32 1
  %83 = load i32, ptr %82, align 4
  %84 = sext i32 %83 to i64
  %85 = getelementptr inbounds [16 x i8], ptr @cardRank, i64 0, i64 %84
  %86 = load i8, ptr %85, align 1
  %87 = invoke noundef nonnull align 8 dereferenceable(8) ptr @_ZStlsISt11char_traitsIcEERSt13basic_ostreamIcT_ES5_h(ptr noundef nonnull align 8 dereferenceable(8) %78, i8 noundef zeroext %86)
          to label %88 unwind label %113

88:                                               ; preds = %79
  %89 = invoke noundef nonnull align 8 dereferenceable(8) ptr @_ZStlsISt11char_traitsIcEERSt13basic_ostreamIcT_ES5_PKc(ptr noundef nonnull align 8 dereferenceable(8) %87, ptr noundef nonnull @.str.25)
          to label %90 unwind label %113

90:                                               ; preds = %88
  %91 = getelementptr inbounds i8, ptr %7, i64 920
  %92 = load i32, ptr %91, align 8
  %93 = sext i32 %92 to i64
  %94 = getelementptr inbounds [14 x %struct.moveType], ptr %10, i64 0, i64 %93
  %95 = load i32, ptr %94, align 8
  %96 = sext i32 %95 to i64
  %97 = getelementptr inbounds [5 x i8], ptr @cardSuit, i64 0, i64 %96
  %98 = load i8, ptr %97, align 1
  %99 = invoke noundef nonnull align 8 dereferenceable(8) ptr @_ZStlsISt11char_traitsIcEERSt13basic_ostreamIcT_ES5_h(ptr noundef nonnull align 8 dereferenceable(8) %89, i8 noundef zeroext %98)
          to label %100 unwind label %113

100:                                              ; preds = %90
  %101 = load i32, ptr %91, align 8
  %102 = sext i32 %101 to i64
  %103 = getelementptr inbounds [14 x %struct.moveType], ptr %10, i64 0, i64 %102, i32 1
  %104 = load i32, ptr %103, align 4
  %105 = sext i32 %104 to i64
  %106 = getelementptr inbounds [16 x i8], ptr @cardRank, i64 0, i64 %105
  %107 = load i8, ptr %106, align 1
  %108 = invoke noundef nonnull align 8 dereferenceable(8) ptr @_ZStlsISt11char_traitsIcEERSt13basic_ostreamIcT_ES5_h(ptr noundef nonnull align 8 dereferenceable(8) %99, i8 noundef zeroext %107)
          to label %109 unwind label %113

109:                                              ; preds = %100
  %110 = invoke noundef nonnull align 8 dereferenceable(8) ptr @_ZStlsISt11char_traitsIcEERSt13basic_ostreamIcT_ES5_PKc(ptr noundef nonnull align 8 dereferenceable(8) %108, ptr noundef nonnull @.str.17)
          to label %111 unwind label %113

111:                                              ; preds = %109
  invoke void @_ZNKSt7__cxx1118basic_stringstreamIcSt11char_traitsIcESaIcEE3strEv(ptr dead_on_unwind writable sret(%"class.std::__cxx11::basic_string") align 8 %0, ptr noundef nonnull align 8 dereferenceable(128) %4)
          to label %112 unwind label %113

112:                                              ; preds = %111
  call void @_ZNSt7__cxx1118basic_stringstreamIcSt11char_traitsIcESaIcEED1Ev(ptr noundef nonnull align 8 dereferenceable(128) %4) #21
  ret void

113:                                              ; preds = %111, %109, %100, %90, %88, %79, %69, %67, %58, %48, %46, %37, %27, %25, %17, %15, %13, %3
  %114 = landingpad { ptr, i32 }
          cleanup
  call void @_ZNSt7__cxx1118basic_stringstreamIcSt11char_traitsIcESaIcEED1Ev(ptr noundef nonnull align 8 dereferenceable(128) %4) #21
  resume { ptr, i32 } %114
}